target datalayout = "e-m:e-p270:32:32-p271:32:32-p272:64:64-i64:64-f80:128-n8:16:32:64-S128"
target triple = "x86_64-pc-linux-gnu"

@.str = private unnamed_addr constant [3 x i8] c"%d\00", align 1
@.str.1 = private unnamed_addr constant [13 x i8] c"%s%d%d%s%s%d\00", align 1
@money = common dso_local global [100 x i32] zeroinitializer, align 16
@.str.2 = private unnamed_addr constant [10 x i8] c"%s\0A%d\0A%d\0A\00", align 1

; Function Attrs: noinline nounwind uwtable
define dso_local i32 @main() #0 {
  %1 = alloca i32, align 4
  %2 = alloca i32, align 4
  %3 = alloca [100 x i32], align 16
  %4 = alloca [100 x i32], align 16
  %5 = alloca [100 x i32], align 16
  %6 = alloca i32, align 4
  %7 = alloca i32, align 4
  %8 = alloca i32, align 4
  %9 = alloca i32, align 4
  %10 = alloca [100 x [30 x i8]], align 16
  %11 = alloca [100 x i8], align 16
  %12 = alloca [100 x i8], align 16
  %13 = alloca [30 x i8], align 16
  store i32 0, i32* %1, align 4
  store i32 0, i32* %9, align 4
  %14 = call i32 (i8*, ...) @__isoc99_scanf(i8* getelementptr inbounds ([3 x i8], [3 x i8]* @.str, i64 0, i64 0), i32* %2)
  store i32 0, i32* %6, align 4
  br label %15

15:                                               ; preds = %141, %0
  %16 = load i32, i32* %6, align 4
  %17 = load i32, i32* %2, align 4
  %18 = icmp slt i32 %16, %17
  br i1 %18, label %19, label %144

19:                                               ; preds = %15
  %20 = load i32, i32* %6, align 4
  %21 = sext i32 %20 to i64
  %22 = getelementptr inbounds [100 x [30 x i8]], [100 x [30 x i8]]* %10, i64 0, i64 %21
  %23 = getelementptr inbounds [30 x i8], [30 x i8]* %22, i64 0, i64 0
  %24 = load i32, i32* %6, align 4
  %25 = sext i32 %24 to i64
  %26 = getelementptr inbounds [100 x i32], [100 x i32]* %3, i64 0, i64 %25
  %27 = load i32, i32* %6, align 4
  %28 = sext i32 %27 to i64
  %29 = getelementptr inbounds [100 x i32], [100 x i32]* %4, i64 0, i64 %28
  %30 = load i32, i32* %6, align 4
  %31 = sext i32 %30 to i64
  %32 = getelementptr inbounds [100 x i8], [100 x i8]* %11, i64 0, i64 %31
  %33 = load i32, i32* %6, align 4
  %34 = sext i32 %33 to i64
  %35 = getelementptr inbounds [100 x i8], [100 x i8]* %12, i64 0, i64 %34
  %36 = load i32, i32* %6, align 4
  %37 = sext i32 %36 to i64
  %38 = getelementptr inbounds [100 x i32], [100 x i32]* %5, i64 0, i64 %37
  %39 = call i32 (i8*, ...) @__isoc99_scanf(i8* getelementptr inbounds ([13 x i8], [13 x i8]* @.str.1, i64 0, i64 0), i8* %23, i32* %26, i32* %29, i8* %32, i8* %35, i32* %38)
  %40 = load i32, i32* %6, align 4
  %41 = sext i32 %40 to i64
  %42 = getelementptr inbounds [100 x i32], [100 x i32]* %3, i64 0, i64 %41
  %43 = load i32, i32* %42, align 4
  %44 = icmp sgt i32 %43, 80
  br i1 %44, label %45, label %60

45:                                               ; preds = %19
  %46 = load i32, i32* %6, align 4
  %47 = sext i32 %46 to i64
  %48 = getelementptr inbounds [100 x i32], [100 x i32]* %5, i64 0, i64 %47
  %49 = load i32, i32* %48, align 4
  %50 = icmp ne i32 %49, 0
  br i1 %50, label %51, label %60

51:                                               ; preds = %45
  %52 = load i32, i32* %6, align 4
  %53 = sext i32 %52 to i64
  %54 = getelementptr inbounds [100 x i32], [100 x i32]* @money, i64 0, i64 %53
  %55 = load i32, i32* %54, align 4
  %56 = add nsw i32 %55, 8000
  %57 = load i32, i32* %6, align 4
  %58 = sext i32 %57 to i64
  %59 = getelementptr inbounds [100 x i32], [100 x i32]* @money, i64 0, i64 %58
  store i32 %56, i32* %59, align 4
  br label %60

60:                                               ; preds = %51, %45, %19
  %61 = load i32, i32* %6, align 4
  %62 = sext i32 %61 to i64
  %63 = getelementptr inbounds [100 x i32], [100 x i32]* %3, i64 0, i64 %62
  %64 = load i32, i32* %63, align 4
  %65 = icmp sgt i32 %64, 85
  br i1 %65, label %66, label %81

66:                                               ; preds = %60
  %67 = load i32, i32* %6, align 4
  %68 = sext i32 %67 to i64
  %69 = getelementptr inbounds [100 x i32], [100 x i32]* %4, i64 0, i64 %68
  %70 = load i32, i32* %69, align 4
  %71 = icmp sgt i32 %70, 80
  br i1 %71, label %72, label %81

72:                                               ; preds = %66
  %73 = load i32, i32* %6, align 4
  %74 = sext i32 %73 to i64
  %75 = getelementptr inbounds [100 x i32], [100 x i32]* @money, i64 0, i64 %74
  %76 = load i32, i32* %75, align 4
  %77 = add nsw i32 %76, 4000
  %78 = load i32, i32* %6, align 4
  %79 = sext i32 %78 to i64
  %80 = getelementptr inbounds [100 x i32], [100 x i32]* @money, i64 0, i64 %79
  store i32 %77, i32* %80, align 4
  br label %81

81:                                               ; preds = %72, %66, %60
  %82 = load i32, i32* %6, align 4
  %83 = sext i32 %82 to i64
  %84 = getelementptr inbounds [100 x i32], [100 x i32]* %3, i64 0, i64 %83
  %85 = load i32, i32* %84, align 4
  %86 = icmp sgt i32 %85, 90
  br i1 %86, label %87, label %96

87:                                               ; preds = %81
  %88 = load i32, i32* %6, align 4
  %89 = sext i32 %88 to i64
  %90 = getelementptr inbounds [100 x i32], [100 x i32]* @money, i64 0, i64 %89
  %91 = load i32, i32* %90, align 4
  %92 = add nsw i32 %91, 2000
  %93 = load i32, i32* %6, align 4
  %94 = sext i32 %93 to i64
  %95 = getelementptr inbounds [100 x i32], [100 x i32]* @money, i64 0, i64 %94
  store i32 %92, i32* %95, align 4
  br label %96

96:                                               ; preds = %87, %81
  %97 = load i32, i32* %6, align 4
  %98 = sext i32 %97 to i64
  %99 = getelementptr inbounds [100 x i32], [100 x i32]* %3, i64 0, i64 %98
  %100 = load i32, i32* %99, align 4
  %101 = icmp sgt i32 %100, 85
  br i1 %101, label %102, label %118

102:                                              ; preds = %96
  %103 = load i32, i32* %6, align 4
  %104 = sext i32 %103 to i64
  %105 = getelementptr inbounds [100 x i8], [100 x i8]* %12, i64 0, i64 %104
  %106 = load i8, i8* %105, align 1
  %107 = sext i8 %106 to i32
  %108 = icmp eq i32 %107, 89
  br i1 %108, label %109, label %118

109:                                              ; preds = %102
  %110 = load i32, i32* %6, align 4
  %111 = sext i32 %110 to i64
  %112 = getelementptr inbounds [100 x i32], [100 x i32]* @money, i64 0, i64 %111
  %113 = load i32, i32* %112, align 4
  %114 = add nsw i32 %113, 1000
  %115 = load i32, i32* %6, align 4
  %116 = sext i32 %115 to i64
  %117 = getelementptr inbounds [100 x i32], [100 x i32]* @money, i64 0, i64 %116
  store i32 %114, i32* %117, align 4
  br label %118

118:                                              ; preds = %109, %102, %96
  %119 = load i32, i32* %6, align 4
  %120 = sext i32 %119 to i64
  %121 = getelementptr inbounds [100 x i32], [100 x i32]* %4, i64 0, i64 %120
  %122 = load i32, i32* %121, align 4
  %123 = icmp sgt i32 %122, 80
  br i1 %123, label %124, label %140

124:                                              ; preds = %118
  %125 = load i32, i32* %6, align 4
  %126 = sext i32 %125 to i64
  %127 = getelementptr inbounds [100 x i8], [100 x i8]* %11, i64 0, i64 %126
  %128 = load i8, i8* %127, align 1
  %129 = sext i8 %128 to i32
  %130 = icmp eq i32 %129, 89
  br i1 %130, label %131, label %140

131:                                              ; preds = %124
  %132 = load i32, i32* %6, align 4
  %133 = sext i32 %132 to i64
  %134 = getelementptr inbounds [100 x i32], [100 x i32]* @money, i64 0, i64 %133
  %135 = load i32, i32* %134, align 4
  %136 = add nsw i32 %135, 850
  %137 = load i32, i32* %6, align 4
  %138 = sext i32 %137 to i64
  %139 = getelementptr inbounds [100 x i32], [100 x i32]* @money, i64 0, i64 %138
  store i32 %136, i32* %139, align 4
  br label %140

140:                                              ; preds = %131, %124, %118
  br label %141

141:                                              ; preds = %140
  %142 = load i32, i32* %6, align 4
  %143 = add nsw i32 %142, 1
  store i32 %143, i32* %6, align 4
  br label %15

144:                                              ; preds = %15
  store i32 0, i32* %7, align 4
  br label %145

145:                                              ; preds = %156, %144
  %146 = load i32, i32* %7, align 4
  %147 = load i32, i32* %2, align 4
  %148 = icmp slt i32 %146, %147
  br i1 %148, label %149, label %159

149:                                              ; preds = %145
  %150 = load i32, i32* %9, align 4
  %151 = load i32, i32* %7, align 4
  %152 = sext i32 %151 to i64
  %153 = getelementptr inbounds [100 x i32], [100 x i32]* @money, i64 0, i64 %152
  %154 = load i32, i32* %153, align 4
  %155 = add nsw i32 %150, %154
  store i32 %155, i32* %9, align 4
  br label %156

156:                                              ; preds = %149
  %157 = load i32, i32* %7, align 4
  %158 = add nsw i32 %157, 1
  store i32 %158, i32* %7, align 4
  br label %145

159:                                              ; preds = %145
  %160 = load i32, i32* %2, align 4
  %161 = sub nsw i32 %160, 1
  store i32 %161, i32* %7, align 4
  br label %162

162:                                              ; preds = %218, %159
  %163 = load i32, i32* %7, align 4
  %164 = icmp sgt i32 %163, 0
  br i1 %164, label %165, label %221

165:                                              ; preds = %162
  %166 = load i32, i32* %7, align 4
  %167 = sext i32 %166 to i64
  %168 = getelementptr inbounds [100 x i32], [100 x i32]* @money, i64 0, i64 %167
  %169 = load i32, i32* %168, align 4
  %170 = load i32, i32* %7, align 4
  %171 = sub nsw i32 %170, 1
  %172 = sext i32 %171 to i64
  %173 = getelementptr inbounds [100 x i32], [100 x i32]* @money, i64 0, i64 %172
  %174 = load i32, i32* %173, align 4
  %175 = icmp sgt i32 %169, %174
  br i1 %175, label %176, label %217

176:                                              ; preds = %165
  %177 = load i32, i32* %7, align 4
  %178 = sext i32 %177 to i64
  %179 = getelementptr inbounds [100 x i32], [100 x i32]* @money, i64 0, i64 %178
  %180 = load i32, i32* %179, align 4
  store i32 %180, i32* %8, align 4
  %181 = load i32, i32* %7, align 4
  %182 = sub nsw i32 %181, 1
  %183 = sext i32 %182 to i64
  %184 = getelementptr inbounds [100 x i32], [100 x i32]* @money, i64 0, i64 %183
  %185 = load i32, i32* %184, align 4
  %186 = load i32, i32* %7, align 4
  %187 = sext i32 %186 to i64
  %188 = getelementptr inbounds [100 x i32], [100 x i32]* @money, i64 0, i64 %187
  store i32 %185, i32* %188, align 4
  %189 = load i32, i32* %8, align 4
  %190 = load i32, i32* %7, align 4
  %191 = sub nsw i32 %190, 1
  %192 = sext i32 %191 to i64
  %193 = getelementptr inbounds [100 x i32], [100 x i32]* @money, i64 0, i64 %192
  store i32 %189, i32* %193, align 4
  %194 = getelementptr inbounds [30 x i8], [30 x i8]* %13, i64 0, i64 0
  %195 = load i32, i32* %7, align 4
  %196 = sext i32 %195 to i64
  %197 = getelementptr inbounds [100 x [30 x i8]], [100 x [30 x i8]]* %10, i64 0, i64 %196
  %198 = getelementptr inbounds [30 x i8], [30 x i8]* %197, i64 0, i64 0
  %199 = call i8* @strcpy(i8* %194, i8* %198) #3
  %200 = load i32, i32* %7, align 4
  %201 = sext i32 %200 to i64
  %202 = getelementptr inbounds [100 x [30 x i8]], [100 x [30 x i8]]* %10, i64 0, i64 %201
  %203 = getelementptr inbounds [30 x i8], [30 x i8]* %202, i64 0, i64 0
  %204 = load i32, i32* %7, align 4
  %205 = sub nsw i32 %204, 1
  %206 = sext i32 %205 to i64
  %207 = getelementptr inbounds [100 x [30 x i8]], [100 x [30 x i8]]* %10, i64 0, i64 %206
  %208 = getelementptr inbounds [30 x i8], [30 x i8]* %207, i64 0, i64 0
  %209 = call i8* @strcpy(i8* %203, i8* %208) #3
  %210 = load i32, i32* %7, align 4
  %211 = sub nsw i32 %210, 1
  %212 = sext i32 %211 to i64
  %213 = getelementptr inbounds [100 x [30 x i8]], [100 x [30 x i8]]* %10, i64 0, i64 %212
  %214 = getelementptr inbounds [30 x i8], [30 x i8]* %213, i64 0, i64 0
  %215 = getelementptr inbounds [30 x i8], [30 x i8]* %13, i64 0, i64 0
  %216 = call i8* @strcpy(i8* %214, i8* %215) #3
  br label %217

217:                                              ; preds = %176, %165
  br label %218

218:                                              ; preds = %217
  %219 = load i32, i32* %7, align 4
  %220 = add nsw i32 %219, -1
  store i32 %220, i32* %7, align 4
  br label %162

221:                                              ; preds = %162
  %222 = getelementptr inbounds [100 x [30 x i8]], [100 x [30 x i8]]* %10, i64 0, i64 0
  %223 = getelementptr inbounds [30 x i8], [30 x i8]* %222, i64 0, i64 0
  %224 = load i32, i32* getelementptr inbounds ([100 x i32], [100 x i32]* @money, i64 0, i64 0), align 16
  %225 = load i32, i32* %9, align 4
  %226 = call i32 (i8*, ...) @printf(i8* getelementptr inbounds ([10 x i8], [10 x i8]* @.str.2, i64 0, i64 0), i8* %223, i32 %224, i32 %225)
  ret i32 0
}